; Function Attrs: mustprogress uwtable
define dso_local void @_ZN3net18SourceAddressToken5ClearEv(ptr nocapture noundef nonnull align 8 dereferenceable(56) %this) unnamed_addr #1 align 2 {
entry:
  %_has_bits_ = getelementptr inbounds i8, ptr %this, i64 24
  %0 = load i32, ptr %_has_bits_, align 8
  %and = and i32 %0, 7
  %tobool.not = icmp eq i32 %and, 0
  br i1 %tobool.not, label %if.end10, label %if.then

if.then:                                          ; preds = %entry
  %and.i = and i32 %0, 1
  %cmp.i.not = icmp eq i32 %and.i, 0
  br i1 %cmp.i.not, label %if.end, label %if.then2

if.then2:                                         ; preds = %if.then
  %ip_ = getelementptr inbounds i8, ptr %this, i64 32
  %1 = load ptr, ptr @_ZN6google8protobuf8internal13empty_string_B5cxx11E, align 8
  %2 = load ptr, ptr %ip_, align 8
  %cmp.i1 = icmp eq ptr %2, %1
  br i1 %cmp.i1, label %if.end, label %if.else.i

if.else.i:                                        ; preds = %if.then2
  tail call void @_ZNSt7__cxx1112basic_stringIcSt11char_traitsIcESaIcEE5clearEv(ptr noundef nonnull align 8 dereferenceable(32) %2) #14
  %.pre = load i32, ptr %_has_bits_, align 8
  br label %if.end

if.end:                                           ; preds = %if.else.i, %if.then2, %if.then
  %3 = phi i32 [ %.pre, %if.else.i ], [ %0, %if.then2 ], [ %0, %if.then ]
  %timestamp_ = getelementptr inbounds i8, ptr %this, i64 40
  store i64 0, ptr %timestamp_, align 8
  %and.i3 = and i32 %3, 4
  %cmp.i4.not = icmp eq i32 %and.i3, 0
  br i1 %cmp.i4.not, label %if.end10, label %if.then5

if.then5:                                         ; preds = %if.end
  %cached_network_parameters_ = getelementptr inbounds i8, ptr %this, i64 48
  %4 = load ptr, ptr %cached_network_parameters_, align 8
  %cmp.not = icmp eq ptr %4, null
  br i1 %cmp.not, label %if.end10, label %if.then6

if.then6:                                         ; preds = %if.then5
  tail call void @_ZN3net23CachedNetworkParameters5ClearEv(ptr noundef nonnull align 8 dereferenceable(72) %4)
  br label %if.end10

if.end10:                                         ; preds = %if.end, %if.then6, %if.then5, %entry
  store i32 0, ptr %_has_bits_, align 8
  %_unknown_fields_ = getelementptr inbounds i8, ptr %this, i64 8
  %5 = load ptr, ptr @_ZN6google8protobuf8internal13empty_string_B5cxx11E, align 8
  %6 = load ptr, ptr %_unknown_fields_, align 8
  %cmp.i5 = icmp eq ptr %6, %5
  br i1 %cmp.i5, label %_ZN6google8protobuf8internal14ArenaStringPtr19ClearToEmptyNoArenaEPKNSt7__cxx1112basic_stringIcSt11char_traitsIcESaIcEEE.exit7, label %if.else.i6

if.else.i6:                                       ; preds = %if.end10
  tail call void @_ZNSt7__cxx1112basic_stringIcSt11char_traitsIcESaIcEE5clearEv(ptr noundef nonnull align 8 dereferenceable(32) %6) #14
  br label %_ZN6google8protobuf8internal14ArenaStringPtr19ClearToEmptyNoArenaEPKNSt7__cxx1112basic_stringIcSt11char_traitsIcESaIcEEE.exit7

_ZN6google8protobuf8internal14ArenaStringPtr19ClearToEmptyNoArenaEPKNSt7__cxx1112basic_stringIcSt11char_traitsIcESaIcEEE.exit7: ; preds = %if.end10, %if.else.i6
  ret void
}